(lp0
I1053335576387219456
aI1053335398867525632
aI1053304414738493440
aI1053227438661079040
aI1052999356033495046
aI1052847192367484929
aI1052830884959641601
aI1052131070790041600
aI1051928033702146048
aI1054070430078787586
aI1054071069240426496
a.